; ModuleID = '5/661.c'
source_filename = "5/661.c"
target datalayout = "e-m:e-p270:32:32-p271:32:32-p272:64:64-i64:64-f80:128-n8:16:32:64-S128"
target triple = "x86_64-pc-linux-gnu"

@.str = private unnamed_addr constant [4 x i8] c"%lf\00", align 1
@.str.1 = private unnamed_addr constant [5 x i8] c"%s%s\00", align 1
@.str.2 = private unnamed_addr constant [6 x i8] c"error\00", align 1
@.str.3 = private unnamed_addr constant [3 x i8] c"no\00", align 1
@.str.4 = private unnamed_addr constant [4 x i8] c"yes\00", align 1

; Function Attrs: noinline nounwind uwtable
define dso_local i32 @main() #0 {
  %1 = alloca i32, align 4
  %2 = alloca double, align 8
  %3 = alloca [501 x i8], align 16
  %4 = alloca [501 x i8], align 16
  %5 = alloca i32, align 4
  %6 = alloca i32, align 4
  %7 = alloca i32, align 4
  %8 = alloca double, align 8
  %9 = alloca double, align 8
  store i32 0, i32* %1, align 4
  %10 = call i32 (i8*, ...) @__isoc99_scanf(i8* getelementptr inbounds ([4 x i8], [4 x i8]* @.str, i64 0, i64 0), double* %2)
  %11 = getelementptr inbounds [501 x i8], [501 x i8]* %3, i64 0, i64 0
  %12 = getelementptr inbounds [501 x i8], [501 x i8]* %4, i64 0, i64 0
  %13 = call i32 (i8*, ...) @__isoc99_scanf(i8* getelementptr inbounds ([5 x i8], [5 x i8]* @.str.1, i64 0, i64 0), i8* %11, i8* %12)
  %14 = getelementptr inbounds [501 x i8], [501 x i8]* %3, i64 0, i64 0
  %15 = call i64 @strlen(i8* %14) #3
  %16 = trunc i64 %15 to i32
  store i32 %16, i32* %5, align 4
  %17 = getelementptr inbounds [501 x i8], [501 x i8]* %4, i64 0, i64 0
  %18 = call i64 @strlen(i8* %17) #3
  %19 = trunc i64 %18 to i32
  store i32 %19, i32* %6, align 4
  store i32 0, i32* %7, align 4
  br label %20

20:                                               ; preds = %55, %0
  %21 = load i32, i32* %7, align 4
  %22 = load i32, i32* %5, align 4
  %23 = icmp slt i32 %21, %22
  br i1 %23, label %24, label %58

24:                                               ; preds = %20
  %25 = load i32, i32* %7, align 4
  %26 = sext i32 %25 to i64
  %27 = getelementptr inbounds [501 x i8], [501 x i8]* %3, i64 0, i64 %26
  %28 = load i8, i8* %27, align 1
  %29 = sext i8 %28 to i32
  %30 = icmp ne i32 %29, 65
  br i1 %30, label %31, label %54

31:                                               ; preds = %24
  %32 = load i32, i32* %7, align 4
  %33 = sext i32 %32 to i64
  %34 = getelementptr inbounds [501 x i8], [501 x i8]* %3, i64 0, i64 %33
  %35 = load i8, i8* %34, align 1
  %36 = sext i8 %35 to i32
  %37 = icmp ne i32 %36, 71
  br i1 %37, label %38, label %54

38:                                               ; preds = %31
  %39 = load i32, i32* %7, align 4
  %40 = sext i32 %39 to i64
  %41 = getelementptr inbounds [501 x i8], [501 x i8]* %3, i64 0, i64 %40
  %42 = load i8, i8* %41, align 1
  %43 = sext i8 %42 to i32
  %44 = icmp ne i32 %43, 67
  br i1 %44, label %45, label %54

45:                                               ; preds = %38
  %46 = load i32, i32* %7, align 4
  %47 = sext i32 %46 to i64
  %48 = getelementptr inbounds [501 x i8], [501 x i8]* %3, i64 0, i64 %47
  %49 = load i8, i8* %48, align 1
  %50 = sext i8 %49 to i32
  %51 = icmp ne i32 %50, 84
  br i1 %51, label %52, label %54

52:                                               ; preds = %45
  %53 = call i32 (i8*, ...) @printf(i8* getelementptr inbounds ([6 x i8], [6 x i8]* @.str.2, i64 0, i64 0))
  store i32 0, i32* %1, align 4
  br label %141

54:                                               ; preds = %45, %38, %31, %24
  br label %55

55:                                               ; preds = %54
  %56 = load i32, i32* %7, align 4
  %57 = add nsw i32 %56, 1
  store i32 %57, i32* %7, align 4
  br label %20

58:                                               ; preds = %20
  store i32 0, i32* %7, align 4
  br label %59

59:                                               ; preds = %94, %58
  %60 = load i32, i32* %7, align 4
  %61 = load i32, i32* %6, align 4
  %62 = icmp slt i32 %60, %61
  br i1 %62, label %63, label %97

63:                                               ; preds = %59
  %64 = load i32, i32* %7, align 4
  %65 = sext i32 %64 to i64
  %66 = getelementptr inbounds [501 x i8], [501 x i8]* %4, i64 0, i64 %65
  %67 = load i8, i8* %66, align 1
  %68 = sext i8 %67 to i32
  %69 = icmp ne i32 %68, 65
  br i1 %69, label %70, label %93

70:                                               ; preds = %63
  %71 = load i32, i32* %7, align 4
  %72 = sext i32 %71 to i64
  %73 = getelementptr inbounds [501 x i8], [501 x i8]* %4, i64 0, i64 %72
  %74 = load i8, i8* %73, align 1
  %75 = sext i8 %74 to i32
  %76 = icmp ne i32 %75, 71
  br i1 %76, label %77, label %93

77:                                               ; preds = %70
  %78 = load i32, i32* %7, align 4
  %79 = sext i32 %78 to i64
  %80 = getelementptr inbounds [501 x i8], [501 x i8]* %4, i64 0, i64 %79
  %81 = load i8, i8* %80, align 1
  %82 = sext i8 %81 to i32
  %83 = icmp ne i32 %82, 67
  br i1 %83, label %84, label %93

84:                                               ; preds = %77
  %85 = load i32, i32* %7, align 4
  %86 = sext i32 %85 to i64
  %87 = getelementptr inbounds [501 x i8], [501 x i8]* %4, i64 0, i64 %86
  %88 = load i8, i8* %87, align 1
  %89 = sext i8 %88 to i32
  %90 = icmp ne i32 %89, 84
  br i1 %90, label %91, label %93

91:                                               ; preds = %84
  %92 = call i32 (i8*, ...) @printf(i8* getelementptr inbounds ([6 x i8], [6 x i8]* @.str.2, i64 0, i64 0))
  store i32 0, i32* %1, align 4
  br label %141

93:                                               ; preds = %84, %77, %70, %63
  br label %94

94:                                               ; preds = %93
  %95 = load i32, i32* %7, align 4
  %96 = add nsw i32 %95, 1
  store i32 %96, i32* %7, align 4
  br label %59

97:                                               ; preds = %59
  %98 = load i32, i32* %5, align 4
  %99 = load i32, i32* %6, align 4
  %100 = icmp ne i32 %98, %99
  br i1 %100, label %101, label %103

101:                                              ; preds = %97
  %102 = call i32 (i8*, ...) @printf(i8* getelementptr inbounds ([6 x i8], [6 x i8]* @.str.2, i64 0, i64 0))
  store i32 0, i32* %1, align 4
  br label %141

103:                                              ; preds = %97
  store double 0.000000e+00, double* %8, align 8
  store i32 0, i32* %7, align 4
  br label %104

104:                                              ; preds = %124, %103
  %105 = load i32, i32* %7, align 4
  %106 = load i32, i32* %5, align 4
  %107 = icmp slt i32 %105, %106
  br i1 %107, label %108, label %127

108:                                              ; preds = %104
  %109 = load i32, i32* %7, align 4
  %110 = sext i32 %109 to i64
  %111 = getelementptr inbounds [501 x i8], [501 x i8]* %3, i64 0, i64 %110
  %112 = load i8, i8* %111, align 1
  %113 = sext i8 %112 to i32
  %114 = load i32, i32* %7, align 4
  %115 = sext i32 %114 to i64
  %116 = getelementptr inbounds [501 x i8], [501 x i8]* %4, i64 0, i64 %115
  %117 = load i8, i8* %116, align 1
  %118 = sext i8 %117 to i32
  %119 = icmp eq i32 %113, %118
  br i1 %119, label %120, label %123

120:                                              ; preds = %108
  %121 = load double, double* %8, align 8
  %122 = fadd double %121, 1.000000e+00
  store double %122, double* %8, align 8
  br label %123

123:                                              ; preds = %120, %108
  br label %124

124:                                              ; preds = %123
  %125 = load i32, i32* %7, align 4
  %126 = add nsw i32 %125, 1
  store i32 %126, i32* %7, align 4
  br label %104

127:                                              ; preds = %104
  %128 = load double, double* %8, align 8
  %129 = load i32, i32* %5, align 4
  %130 = sitofp i32 %129 to double
  %131 = fmul double %130, 1.000000e+00
  %132 = fdiv double %128, %131
  store double %132, double* %9, align 8
  %133 = load double, double* %9, align 8
  %134 = load double, double* %2, align 8
  %135 = fcmp ole double %133, %134
  br i1 %135, label %136, label %138

136:                                              ; preds = %127
  %137 = call i32 (i8*, ...) @printf(i8* getelementptr inbounds ([3 x i8], [3 x i8]* @.str.3, i64 0, i64 0))
  br label %140

138:                                              ; preds = %127
  %139 = call i32 (i8*, ...) @printf(i8* getelementptr inbounds ([4 x i8], [4 x i8]* @.str.4, i64 0, i64 0))
  br label %140

140:                                              ; preds = %138, %136
  store i32 0, i32* %1, align 4
  br label %141

141:                                              ; preds = %140, %101, %91, %52
  %142 = load i32, i32* %1, align 4
  ret i32 %142
}

declare dso_local i32 @__isoc99_scanf(i8*, ...) #1

; Function Attrs: nounwind readonly
declare dso_local i64 @strlen(i8*) #2

declare dso_local i32 @printf(i8*, ...) #1


!llvm.module.flags = !{!0}
!llvm.ident = !{!1}

!0 = !{i32 1, !"wchar_size", i32 4}
!1 = !{!"clang version 10.0.0-4ubuntu1 "}
